target datalayout = "e-m:e-p270:32:32-p271:32:32-p272:64:64-i64:64-i128:128-f80:128-n8:16:32:64-S128"
target triple = "x86_64-pc-linux-gnu"

%struct.wtapng_dsb_mandatory_s = type { i32, i32, ptr }
%struct._capture_file = type { ptr, i32, ptr, ptr, i8, i8, i8, i64, i16, i32, i32, i32, ptr, i32, i64, i32, i32, i32, i32, i8, i32, %struct.nstime_t, i32, ptr, ptr, ptr, i8, i8, i32, ptr, i8, i8, i8, i8, i8, i32, i32, i8, ptr, i32, i32, i8, %struct.packet_provider_data, i32, i32, %struct.epan_column_info, ptr, ptr, ptr, %struct.wtap_rec, %struct.Buffer, ptr, i64, i32 }
%struct.nstime_t = type { i64, i32 }
%struct.packet_provider_data = type { ptr, ptr, ptr, ptr, ptr, ptr }
%struct.epan_column_info = type { ptr, i32, ptr, ptr, ptr, %struct.col_expr_t, i8, ptr }
%struct.col_expr_t = type { ptr, ptr }
%struct.wtap_rec = type { i32, i32, i32, %struct.nstime_t, i32, %struct.nstime_t, i8, %union.anon, ptr, i8, %struct.Buffer, %struct.Buffer }
%union.anon = type { %struct.wtap_packet_header }
%struct.wtap_packet_header = type { i32, i32, i32, i32, %union.wtap_pseudo_header }
%union.wtap_pseudo_header = type { %struct.erf_mc_phdr }
%struct.erf_mc_phdr = type { %struct.erf_phdr, [16 x %struct.erf_ehdr], %union.anon.1 }
%struct.erf_phdr = type { i64, i8, i8, i16, i16, i16 }
%struct.erf_ehdr = type { i64 }
%union.anon.1 = type { i32 }
%struct.Buffer = type { ptr, i64, i64, i64 }

; Function Attrs: null_pointer_is_valid sspstrong uwtable
define hidden void @tls_export_dsb(ptr noundef %0) #0 {
  %2 = alloca ptr, align 8
  %3 = alloca ptr, align 8
  %4 = alloca ptr, align 8
  %5 = alloca i64, align 8
  %6 = alloca ptr, align 8
  store ptr %0, ptr %2, align 8
  call void @llvm.lifetime.start.p0(i64 8, ptr %3) #5
  call void @llvm.lifetime.start.p0(i64 8, ptr %4) #5
  call void @llvm.lifetime.start.p0(i64 8, ptr %5) #5
  call void @llvm.lifetime.start.p0(i64 8, ptr %6) #5
  %7 = call ptr @ssl_export_sessions(ptr noundef %5)
  store ptr %7, ptr %6, align 8
  %8 = call ptr @wtap_block_create(i32 noundef 4)
  store ptr %8, ptr %3, align 8
  %9 = load ptr, ptr %3, align 8
  %10 = call ptr @wtap_block_get_mandatory_data(ptr noundef %9)
  store ptr %10, ptr %4, align 8
  %11 = load ptr, ptr %4, align 8
  %12 = getelementptr inbounds nuw %struct.wtapng_dsb_mandatory_s, ptr %11, i32 0, i32 0
  store i32 1414288203, ptr %12, align 8
  %13 = load ptr, ptr %6, align 8
  %14 = load i64, ptr %5, align 8
  %15 = call ptr @g_memdup2(ptr noundef %13, i64 noundef %14) #6
  %16 = load ptr, ptr %4, align 8
  %17 = getelementptr inbounds nuw %struct.wtapng_dsb_mandatory_s, ptr %16, i32 0, i32 2
  store ptr %15, ptr %17, align 8
  %18 = load i64, ptr %5, align 8
  %19 = trunc i64 %18 to i32
  %20 = load ptr, ptr %4, align 8
  %21 = getelementptr inbounds nuw %struct.wtapng_dsb_mandatory_s, ptr %20, i32 0, i32 1
  store i32 %19, ptr %21, align 4
  %22 = load ptr, ptr %2, align 8
  %23 = getelementptr inbounds nuw %struct._capture_file, ptr %22, i32 0, i32 42
  %24 = getelementptr inbounds nuw %struct.packet_provider_data, ptr %23, i32 0, i32 0
  %25 = load ptr, ptr %24, align 8
  %26 = load ptr, ptr %3, align 8
  call void @wtap_file_add_decryption_secrets(ptr noundef %25, ptr noundef %26)
  %27 = load ptr, ptr %2, align 8
  %28 = getelementptr inbounds nuw %struct._capture_file, ptr %27, i32 0, i32 5
  store i8 1, ptr %28, align 1
  call void @llvm.lifetime.end.p0(i64 8, ptr %6) #5
  call void @llvm.lifetime.end.p0(i64 8, ptr %5) #5
  call void @llvm.lifetime.end.p0(i64 8, ptr %4) #5
  call void @llvm.lifetime.end.p0(i64 8, ptr %3) #5
  ret void
}