; Function Attrs: null_pointer_is_valid sspstrong uwtable
define hidden void @tls_export_dsb(ptr noundef captures(none) initializes((33, 34)) %0) local_unnamed_addr #0 {
  %2 = alloca i64, align 8
  call void @llvm.lifetime.start.p0(i64 8, ptr nonnull %2) #4
  %3 = call ptr @ssl_export_sessions(ptr noundef nonnull %2)
  %4 = tail call ptr @wtap_block_create(i32 noundef 4)
  %5 = tail call ptr @wtap_block_get_mandatory_data(ptr noundef %4)
  store i32 1414288203, ptr %5, align 8
  %6 = load i64, ptr %2, align 8
  %7 = tail call ptr @g_memdup2(ptr noundef %3, i64 noundef %6) #5
  %8 = getelementptr inbounds nuw i8, ptr %5, i64 8
  store ptr %7, ptr %8, align 8
  %9 = trunc i64 %6 to i32
  %10 = getelementptr inbounds nuw i8, ptr %5, i64 4
  store i32 %9, ptr %10, align 4
  %11 = getelementptr inbounds nuw i8, ptr %0, i64 224
  %12 = load ptr, ptr %11, align 8
  tail call void @wtap_file_add_decryption_secrets(ptr noundef %12, ptr noundef %4)
  %13 = getelementptr inbounds nuw i8, ptr %0, i64 33
  store i8 1, ptr %13, align 1
  call void @llvm.lifetime.end.p0(i64 8, ptr nonnull %2) #4
  ret void
}